target datalayout = "e-m:e-p270:32:32-p271:32:32-p272:64:64-i64:64-f80:128-n8:16:32:64-S128"
target triple = "x86_64-pc-linux-gnu"

%struct.student = type { i32, i32, i32 }

@.str = private unnamed_addr constant [3 x i8] c"%d\00", align 1
@.str.1 = private unnamed_addr constant [7 x i8] c"%d %d\0A\00", align 1

; Function Attrs: noinline nounwind uwtable
define dso_local i32 @main() #0 {
  %1 = alloca i32, align 4
  %2 = alloca i32, align 4
  %3 = alloca [100000 x %struct.student], align 16
  %4 = alloca %struct.student, align 4
  %5 = alloca i32, align 4
  %6 = alloca [100000 x i32], align 16
  store i32 0, i32* %1, align 4
  %7 = call i32 (i8*, ...) @__isoc99_scanf(i8* getelementptr inbounds ([3 x i8], [3 x i8]* @.str, i64 0, i64 0), i32* %2)
  %8 = bitcast [100000 x i32]* %6 to i8*
  call void @llvm.memset.p0i8.i64(i8* align 16 %8, i8 0, i64 400000, i1 false)
  store i32 0, i32* %5, align 4
  br label %9

9:                                                ; preds = %29, %0
  %10 = load i32, i32* %5, align 4
  %11 = load i32, i32* %2, align 4
  %12 = icmp slt i32 %10, %11
  br i1 %12, label %13, label %32

13:                                               ; preds = %9
  %14 = load i32, i32* %5, align 4
  %15 = sext i32 %14 to i64
  %16 = getelementptr inbounds [100000 x %struct.student], [100000 x %struct.student]* %3, i64 0, i64 %15
  %17 = getelementptr inbounds %struct.student, %struct.student* %16, i32 0, i32 0
  %18 = call i32 (i8*, ...) @__isoc99_scanf(i8* getelementptr inbounds ([3 x i8], [3 x i8]* @.str, i64 0, i64 0), i32* %17)
  %19 = load i32, i32* %5, align 4
  %20 = sext i32 %19 to i64
  %21 = getelementptr inbounds [100000 x %struct.student], [100000 x %struct.student]* %3, i64 0, i64 %20
  %22 = getelementptr inbounds %struct.student, %struct.student* %21, i32 0, i32 1
  %23 = call i32 (i8*, ...) @__isoc99_scanf(i8* getelementptr inbounds ([3 x i8], [3 x i8]* @.str, i64 0, i64 0), i32* %22)
  %24 = load i32, i32* %5, align 4
  %25 = sext i32 %24 to i64
  %26 = getelementptr inbounds [100000 x %struct.student], [100000 x %struct.student]* %3, i64 0, i64 %25
  %27 = getelementptr inbounds %struct.student, %struct.student* %26, i32 0, i32 2
  %28 = call i32 (i8*, ...) @__isoc99_scanf(i8* getelementptr inbounds ([3 x i8], [3 x i8]* @.str, i64 0, i64 0), i32* %27)
  br label %29

29:                                               ; preds = %13
  %30 = load i32, i32* %5, align 4
  %31 = add nsw i32 %30, 1
  store i32 %31, i32* %5, align 4
  br label %9

32:                                               ; preds = %9
  store i32 1, i32* %5, align 4
  br label %33

33:                                               ; preds = %73, %32
  %34 = load i32, i32* %5, align 4
  %35 = load i32, i32* %2, align 4
  %36 = icmp slt i32 %34, %35
  br i1 %36, label %37, label %76

37:                                               ; preds = %33
  %38 = load i32, i32* %5, align 4
  %39 = sext i32 %38 to i64
  %40 = getelementptr inbounds [100000 x %struct.student], [100000 x %struct.student]* %3, i64 0, i64 %39
  %41 = getelementptr inbounds %struct.student, %struct.student* %40, i32 0, i32 1
  %42 = load i32, i32* %41, align 4
  %43 = load i32, i32* %5, align 4
  %44 = sext i32 %43 to i64
  %45 = getelementptr inbounds [100000 x %struct.student], [100000 x %struct.student]* %3, i64 0, i64 %44
  %46 = getelementptr inbounds %struct.student, %struct.student* %45, i32 0, i32 2
  %47 = load i32, i32* %46, align 4
  %48 = add nsw i32 %42, %47
  %49 = getelementptr inbounds [100000 x %struct.student], [100000 x %struct.student]* %3, i64 0, i64 0
  %50 = getelementptr inbounds %struct.student, %struct.student* %49, i32 0, i32 1
  %51 = load i32, i32* %50, align 4
  %52 = getelementptr inbounds [100000 x %struct.student], [100000 x %struct.student]* %3, i64 0, i64 0
  %53 = getelementptr inbounds %struct.student, %struct.student* %52, i32 0, i32 2
  %54 = load i32, i32* %53, align 8
  %55 = add nsw i32 %51, %54
  %56 = icmp sgt i32 %48, %55
  br i1 %56, label %57, label %72

57:                                               ; preds = %37
  %58 = getelementptr inbounds [100000 x %struct.student], [100000 x %struct.student]* %3, i64 0, i64 0
  %59 = bitcast %struct.student* %4 to i8*
  %60 = bitcast %struct.student* %58 to i8*
  call void @llvm.memcpy.p0i8.p0i8.i64(i8* align 4 %59, i8* align 16 %60, i64 12, i1 false)
  %61 = getelementptr inbounds [100000 x %struct.student], [100000 x %struct.student]* %3, i64 0, i64 0
  %62 = load i32, i32* %5, align 4
  %63 = sext i32 %62 to i64
  %64 = getelementptr inbounds [100000 x %struct.student], [100000 x %struct.student]* %3, i64 0, i64 %63
  %65 = bitcast %struct.student* %61 to i8*
  %66 = bitcast %struct.student* %64 to i8*
  call void @llvm.memcpy.p0i8.p0i8.i64(i8* align 16 %65, i8* align 4 %66, i64 12, i1 false)
  %67 = load i32, i32* %5, align 4
  %68 = sext i32 %67 to i64
  %69 = getelementptr inbounds [100000 x %struct.student], [100000 x %struct.student]* %3, i64 0, i64 %68
  %70 = bitcast %struct.student* %69 to i8*
  %71 = bitcast %struct.student* %4 to i8*
  call void @llvm.memcpy.p0i8.p0i8.i64(i8* align 4 %70, i8* align 4 %71, i64 12, i1 false)
  br label %72

72:                                               ; preds = %57, %37
  br label %73

73:                                               ; preds = %72
  %74 = load i32, i32* %5, align 4
  %75 = add nsw i32 %74, 1
  store i32 %75, i32* %5, align 4
  br label %33

76:                                               ; preds = %33
  %77 = getelementptr inbounds [100000 x %struct.student], [100000 x %struct.student]* %3, i64 0, i64 0
  %78 = getelementptr inbounds %struct.student, %struct.student* %77, i32 0, i32 0
  %79 = load i32, i32* %78, align 16
  %80 = getelementptr inbounds [100000 x %struct.student], [100000 x %struct.student]* %3, i64 0, i64 0
  %81 = getelementptr inbounds %struct.student, %struct.student* %80, i32 0, i32 1
  %82 = load i32, i32* %81, align 4
  %83 = getelementptr inbounds [100000 x %struct.student], [100000 x %struct.student]* %3, i64 0, i64 0
  %84 = getelementptr inbounds %struct.student, %struct.student* %83, i32 0, i32 2
  %85 = load i32, i32* %84, align 8
  %86 = add nsw i32 %82, %85
  %87 = call i32 (i8*, ...) @printf(i8* getelementptr inbounds ([7 x i8], [7 x i8]* @.str.1, i64 0, i64 0), i32 %79, i32 %86)
  store i32 2, i32* %5, align 4
  br label %88

88:                                               ; preds = %128, %76
  %89 = load i32, i32* %5, align 4
  %90 = load i32, i32* %2, align 4
  %91 = icmp slt i32 %89, %90
  br i1 %91, label %92, label %131

92:                                               ; preds = %88
  %93 = load i32, i32* %5, align 4
  %94 = sext i32 %93 to i64
  %95 = getelementptr inbounds [100000 x %struct.student], [100000 x %struct.student]* %3, i64 0, i64 %94
  %96 = getelementptr inbounds %struct.student, %struct.student* %95, i32 0, i32 1
  %97 = load i32, i32* %96, align 4
  %98 = load i32, i32* %5, align 4
  %99 = sext i32 %98 to i64
  %100 = getelementptr inbounds [100000 x %struct.student], [100000 x %struct.student]* %3, i64 0, i64 %99
  %101 = getelementptr inbounds %struct.student, %struct.student* %100, i32 0, i32 2
  %102 = load i32, i32* %101, align 4
  %103 = add nsw i32 %97, %102
  %104 = getelementptr inbounds [100000 x %struct.student], [100000 x %struct.student]* %3, i64 0, i64 1
  %105 = getelementptr inbounds %struct.student, %struct.student* %104, i32 0, i32 1
  %106 = load i32, i32* %105, align 4
  %107 = getelementptr inbounds [100000 x %struct.student], [100000 x %struct.student]* %3, i64 0, i64 1
  %108 = getelementptr inbounds %struct.student, %struct.student* %107, i32 0, i32 2
  %109 = load i32, i32* %108, align 4
  %110 = add nsw i32 %106, %109
  %111 = icmp sgt i32 %103, %110
  br i1 %111, label %112, label %127

112:                                              ; preds = %92
  %113 = getelementptr inbounds [100000 x %struct.student], [100000 x %struct.student]* %3, i64 0, i64 1
  %114 = bitcast %struct.student* %4 to i8*
  %115 = bitcast %struct.student* %113 to i8*
  call void @llvm.memcpy.p0i8.p0i8.i64(i8* align 4 %114, i8* align 4 %115, i64 12, i1 false)
  %116 = getelementptr inbounds [100000 x %struct.student], [100000 x %struct.student]* %3, i64 0, i64 1
  %117 = load i32, i32* %5, align 4
  %118 = sext i32 %117 to i64
  %119 = getelementptr inbounds [100000 x %struct.student], [100000 x %struct.student]* %3, i64 0, i64 %118
  %120 = bitcast %struct.student* %116 to i8*
  %121 = bitcast %struct.student* %119 to i8*
  call void @llvm.memcpy.p0i8.p0i8.i64(i8* align 4 %120, i8* align 4 %121, i64 12, i1 false)
  %122 = load i32, i32* %5, align 4
  %123 = sext i32 %122 to i64
  %124 = getelementptr inbounds [100000 x %struct.student], [100000 x %struct.student]* %3, i64 0, i64 %123
  %125 = bitcast %struct.student* %124 to i8*
  %126 = bitcast %struct.student* %4 to i8*
  call void @llvm.memcpy.p0i8.p0i8.i64(i8* align 4 %125, i8* align 4 %126, i64 12, i1 false)
  br label %127

127:                                              ; preds = %112, %92
  br label %128

128:                                              ; preds = %127
  %129 = load i32, i32* %5, align 4
  %130 = add nsw i32 %129, 1
  store i32 %130, i32* %5, align 4
  br label %88

131:                                              ; preds = %88
  %132 = getelementptr inbounds [100000 x %struct.student], [100000 x %struct.student]* %3, i64 0, i64 1
  %133 = getelementptr inbounds %struct.student, %struct.student* %132, i32 0, i32 0
  %134 = load i32, i32* %133, align 4
  %135 = getelementptr inbounds [100000 x %struct.student], [100000 x %struct.student]* %3, i64 0, i64 1
  %136 = getelementptr inbounds %struct.student, %struct.student* %135, i32 0, i32 1
  %137 = load i32, i32* %136, align 4
  %138 = getelementptr inbounds [100000 x %struct.student], [100000 x %struct.student]* %3, i64 0, i64 1
  %139 = getelementptr inbounds %struct.student, %struct.student* %138, i32 0, i32 2
  %140 = load i32, i32* %139, align 4
  %141 = add nsw i32 %137, %140
  %142 = call i32 (i8*, ...) @printf(i8* getelementptr inbounds ([7 x i8], [7 x i8]* @.str.1, i64 0, i64 0), i32 %134, i32 %141)
  store i32 3, i32* %5, align 4
  br label %143

143:                                              ; preds = %183, %131
  %144 = load i32, i32* %5, align 4
  %145 = load i32, i32* %2, align 4
  %146 = icmp slt i32 %144, %145
  br i1 %146, label %147, label %186

147:                                              ; preds = %143
  %148 = load i32, i32* %5, align 4
  %149 = sext i32 %148 to i64
  %150 = getelementptr inbounds [100000 x %struct.student], [100000 x %struct.student]* %3, i64 0, i64 %149
  %151 = getelementptr inbounds %struct.student, %struct.student* %150, i32 0, i32 1
  %152 = load i32, i32* %151, align 4
  %153 = load i32, i32* %5, align 4
  %154 = sext i32 %153 to i64
  %155 = getelementptr inbounds [100000 x %struct.student], [100000 x %struct.student]* %3, i64 0, i64 %154
  %156 = getelementptr inbounds %struct.student, %struct.student* %155, i32 0, i32 2
  %157 = load i32, i32* %156, align 4
  %158 = add nsw i32 %152, %157
  %159 = getelementptr inbounds [100000 x %struct.student], [100000 x %struct.student]* %3, i64 0, i64 2
  %160 = getelementptr inbounds %struct.student, %struct.student* %159, i32 0, i32 1
  %161 = load i32, i32* %160, align 4
  %162 = getelementptr inbounds [100000 x %struct.student], [100000 x %struct.student]* %3, i64 0, i64 2
  %163 = getelementptr inbounds %struct.student, %struct.student* %162, i32 0, i32 2
  %164 = load i32, i32* %163, align 8
  %165 = add nsw i32 %161, %164
  %166 = icmp sgt i32 %158, %165
  br i1 %166, label %167, label %182

167:                                              ; preds = %147
  %168 = getelementptr inbounds [100000 x %struct.student], [100000 x %struct.student]* %3, i64 0, i64 2
  %169 = bitcast %struct.student* %4 to i8*
  %170 = bitcast %struct.student* %168 to i8*
  call void @llvm.memcpy.p0i8.p0i8.i64(i8* align 4 %169, i8* align 8 %170, i64 12, i1 false)
  %171 = getelementptr inbounds [100000 x %struct.student], [100000 x %struct.student]* %3, i64 0, i64 2
  %172 = load i32, i32* %5, align 4
  %173 = sext i32 %172 to i64
  %174 = getelementptr inbounds [100000 x %struct.student], [100000 x %struct.student]* %3, i64 0, i64 %173
  %175 = bitcast %struct.student* %171 to i8*
  %176 = bitcast %struct.student* %174 to i8*
  call void @llvm.memcpy.p0i8.p0i8.i64(i8* align 8 %175, i8* align 4 %176, i64 12, i1 false)
  %177 = load i32, i32* %5, align 4
  %178 = sext i32 %177 to i64
  %179 = getelementptr inbounds [100000 x %struct.student], [100000 x %struct.student]* %3, i64 0, i64 %178
  %180 = bitcast %struct.student* %179 to i8*
  %181 = bitcast %struct.student* %4 to i8*
  call void @llvm.memcpy.p0i8.p0i8.i64(i8* align 4 %180, i8* align 4 %181, i64 12, i1 false)
  br label %182

182:                                              ; preds = %167, %147
  br label %183

183:                                              ; preds = %182
  %184 = load i32, i32* %5, align 4
  %185 = add nsw i32 %184, 1
  store i32 %185, i32* %5, align 4
  br label %143

186:                                              ; preds = %143
  %187 = getelementptr inbounds [100000 x %struct.student], [100000 x %struct.student]* %3, i64 0, i64 2
  %188 = getelementptr inbounds %struct.student, %struct.student* %187, i32 0, i32 0
  %189 = load i32, i32* %188, align 8
  %190 = getelementptr inbounds [100000 x %struct.student], [100000 x %struct.student]* %3, i64 0, i64 2
  %191 = getelementptr inbounds %struct.student, %struct.student* %190, i32 0, i32 1
  %192 = load i32, i32* %191, align 4
  %193 = getelementptr inbounds [100000 x %struct.student], [100000 x %struct.student]* %3, i64 0, i64 2
  %194 = getelementptr inbounds %struct.student, %struct.student* %193, i32 0, i32 2
  %195 = load i32, i32* %194, align 8
  %196 = add nsw i32 %192, %195
  %197 = call i32 (i8*, ...) @printf(i8* getelementptr inbounds ([7 x i8], [7 x i8]* @.str.1, i64 0, i64 0), i32 %189, i32 %196)
  ret i32 0
}